target datalayout = "e-m:e-p270:32:32-p271:32:32-p272:64:64-i64:64-i128:128-f80:128-n8:16:32:64-S128"
target triple = "x86_64-unknown-linux-gnu"

%"class.QuantLib::Date" = type { i64 }
%"class.QuantLib::Period" = type { i32, i32 }

; Function Attrs: mustprogress nounwind uwtable
define linkonce_odr noundef i32 @_ZNK8QuantLib6Period5unitsEv(ptr noundef nonnull align 4 dereferenceable(8) %this) #1 comdat align 2 {
entry:
  %this.addr = alloca ptr, align 8
  store ptr %this, ptr %this.addr, align 8, !tbaa !3
  %this1 = load ptr, ptr %this.addr, align 8
  %units_ = getelementptr inbounds nuw %"class.QuantLib::Period", ptr %this1, i32 0, i32 1
  %0 = load i32, ptr %units_, align 4, !tbaa !108
  ret i32 %0
}

; Function Attrs: mustprogress nounwind uwtable
define linkonce_odr noundef i32 @_ZNK8QuantLib6Period6lengthEv(ptr noundef nonnull align 4 dereferenceable(8) %this) #1 comdat align 2 {
entry:
  %this.addr = alloca ptr, align 8
  store ptr %this, ptr %this.addr, align 8, !tbaa !3
  %this1 = load ptr, ptr %this.addr, align 8
  %length_ = getelementptr inbounds nuw %"class.QuantLib::Period", ptr %this1, i32 0, i32 0
  %0 = load i32, ptr %length_, align 4, !tbaa !105
  ret i32 %0
}

; Function Attrs: inlinehint mustprogress uwtable
define linkonce_odr i64 @_ZNK8QuantLib4DateplERKNS_6PeriodE(ptr noundef nonnull align 8 dereferenceable(8) %this, ptr noundef nonnull align 4 dereferenceable(8) %p) #4 comdat align 2 {
entry:
  %retval = alloca %"class.QuantLib::Date", align 8
  %this.addr = alloca ptr, align 8
  %p.addr = alloca ptr, align 8
  store ptr %this, ptr %this.addr, align 8, !tbaa !3
  store ptr %p, ptr %p.addr, align 8, !tbaa !3
  %this1 = load ptr, ptr %this.addr, align 8
  %0 = load ptr, ptr %p.addr, align 8, !tbaa !3
  %call = call noundef i32 @_ZNK8QuantLib6Period6lengthEv(ptr noundef nonnull align 4 dereferenceable(8) %0)
  %1 = load ptr, ptr %p.addr, align 8, !tbaa !3
  %call2 = call noundef i32 @_ZNK8QuantLib6Period5unitsEv(ptr noundef nonnull align 4 dereferenceable(8) %1)
  %call3 = call i64 @_ZN8QuantLib4Date7advanceERKS0_iNS_8TimeUnitE(ptr noundef nonnull align 8 dereferenceable(8) %this1, i32 noundef %call, i32 noundef %call2)
  %coerce.dive = getelementptr inbounds nuw %"class.QuantLib::Date", ptr %retval, i32 0, i32 0
  store i64 %call3, ptr %coerce.dive, align 8
  %coerce.dive4 = getelementptr inbounds nuw %"class.QuantLib::Date", ptr %retval, i32 0, i32 0
  %2 = load i64, ptr %coerce.dive4, align 8
  ret i64 %2
}

; Function Attrs: mustprogress uwtable
define internal i64 @_ZN8QuantLib12_GLOBAL__N_112getSofrStartENS_5MonthEiNS_9FrequencyE(i32 noundef %month, i32 noundef %year, i32 noundef %freq) #2 {
entry:
  %retval = alloca %"class.QuantLib::Date", align 8
  %month.addr = alloca i32, align 4
  %year.addr = alloca i32, align 4
  %freq.addr = alloca i32, align 4
  store i32 %month, ptr %month.addr, align 4, !tbaa !66
  store i32 %year, ptr %year.addr, align 4, !tbaa !68
  store i32 %freq, ptr %freq.addr, align 4, !tbaa !70
  %0 = load i32, ptr %freq.addr, align 4, !tbaa !70
  %cmp = icmp eq i32 %0, 12
  br i1 %cmp, label %cond.true, label %cond.false

cond.true:                                        ; preds = %entry
  %1 = load i32, ptr %month.addr, align 4, !tbaa !66
  %2 = load i32, ptr %year.addr, align 4, !tbaa !68
  call void @_ZN8QuantLib4DateC1EiNS_5MonthEi(ptr noundef nonnull align 8 dereferenceable(8) %retval, i32 noundef 1, i32 noundef %1, i32 noundef %2)
  br label %cond.end

cond.false:                                       ; preds = %entry
  %3 = load i32, ptr %month.addr, align 4, !tbaa !66
  %4 = load i32, ptr %year.addr, align 4, !tbaa !68
  %call = call i64 @_ZN8QuantLib4Date10nthWeekdayEmNS_7WeekdayENS_5MonthEi(i64 noundef 3, i32 noundef 4, i32 noundef %3, i32 noundef %4)
  %coerce.dive = getelementptr inbounds nuw %"class.QuantLib::Date", ptr %retval, i32 0, i32 0
  store i64 %call, ptr %coerce.dive, align 8
  br label %cond.end

cond.end:                                         ; preds = %cond.false, %cond.true
  %coerce.dive1 = getelementptr inbounds nuw %"class.QuantLib::Date", ptr %retval, i32 0, i32 0
  %5 = load i64, ptr %coerce.dive1, align 8
  ret i64 %5
}

; Function Attrs: inlinehint mustprogress uwtable
define linkonce_odr i64 @_ZNK8QuantLib4DateplEl(ptr noundef nonnull align 8 dereferenceable(8) %this, i64 noundef %days) #4 comdat align 2 {
entry:
  %retval = alloca %"class.QuantLib::Date", align 8
  %this.addr = alloca ptr, align 8
  %days.addr = alloca i64, align 8
  store ptr %this, ptr %this.addr, align 8, !tbaa !3
  store i64 %days, ptr %days.addr, align 8, !tbaa !21
  %this1 = load ptr, ptr %this.addr, align 8
  %serialNumber_ = getelementptr inbounds nuw %"class.QuantLib::Date", ptr %this1, i32 0, i32 0
  %0 = load i64, ptr %serialNumber_, align 8, !tbaa !104
  %1 = load i64, ptr %days.addr, align 8, !tbaa !21
  %add = add nsw i64 %0, %1
  call void @_ZN8QuantLib4DateC1El(ptr noundef nonnull align 8 dereferenceable(8) %retval, i64 noundef %add)
  %coerce.dive = getelementptr inbounds nuw %"class.QuantLib::Date", ptr %retval, i32 0, i32 0
  %2 = load i64, ptr %coerce.dive, align 8
  ret i64 %2
}

; Function Attrs: inlinehint mustprogress uwtable
define linkonce_odr i64 @_ZN8QuantLib4Date10endOfMonthERKS0_(ptr noundef nonnull align 8 dereferenceable(8) %d) #4 comdat align 2 {
entry:
  %retval = alloca %"class.QuantLib::Date", align 8
  %d.addr = alloca ptr, align 8
  %m = alloca i32, align 4
  %y = alloca i32, align 4
  store ptr %d, ptr %d.addr, align 8, !tbaa !3
  call void @llvm.lifetime.start.p0(i64 4, ptr %m) #13
  %0 = load ptr, ptr %d.addr, align 8, !tbaa !3
  %call = call noundef i32 @_ZNK8QuantLib4Date5monthEv(ptr noundef nonnull align 8 dereferenceable(8) %0)
  store i32 %call, ptr %m, align 4, !tbaa !66
  call void @llvm.lifetime.start.p0(i64 4, ptr %y) #13
  %1 = load ptr, ptr %d.addr, align 8, !tbaa !3
  %call1 = call noundef i32 @_ZNK8QuantLib4Date4yearEv(ptr noundef nonnull align 8 dereferenceable(8) %1)
  store i32 %call1, ptr %y, align 4, !tbaa !68
  %2 = load i32, ptr %m, align 4, !tbaa !66
  %3 = load i32, ptr %y, align 4, !tbaa !68
  %call2 = call noundef zeroext i1 @_ZN8QuantLib4Date6isLeapEi(i32 noundef %3)
  %call3 = call noundef i32 @_ZN8QuantLib4Date11monthLengthENS_5MonthEb(i32 noundef %2, i1 noundef zeroext %call2)
  %4 = load i32, ptr %m, align 4, !tbaa !66
  %5 = load i32, ptr %y, align 4, !tbaa !68
  call void @_ZN8QuantLib4DateC1EiNS_5MonthEi(ptr noundef nonnull align 8 dereferenceable(8) %retval, i32 noundef %call3, i32 noundef %4, i32 noundef %5)
  call void @llvm.lifetime.end.p0(i64 4, ptr %y) #13
  call void @llvm.lifetime.end.p0(i64 4, ptr %m) #13
  %coerce.dive = getelementptr inbounds nuw %"class.QuantLib::Date", ptr %retval, i32 0, i32 0
  %6 = load i64, ptr %coerce.dive, align 8
  ret i64 %6
}

; Function Attrs: mustprogress uwtable
define internal i64 @_ZN8QuantLib12_GLOBAL__N_110getSofrEndENS_5MonthEiNS_9FrequencyE(i32 noundef %month, i32 noundef %year, i32 noundef %freq) #2 {
entry:
  %retval = alloca %"class.QuantLib::Date", align 8
  %month.addr = alloca i32, align 4
  %year.addr = alloca i32, align 4
  %freq.addr = alloca i32, align 4
  %ref.tmp = alloca %"class.QuantLib::Date", align 8
  %ref.tmp1 = alloca %"class.QuantLib::Date", align 8
  %d = alloca %"class.QuantLib::Date", align 8
  %ref.tmp4 = alloca %"class.QuantLib::Date", align 8
  %ref.tmp7 = alloca %"class.QuantLib::Period", align 4
  store i32 %month, ptr %month.addr, align 4, !tbaa !66
  store i32 %year, ptr %year.addr, align 4, !tbaa !68
  store i32 %freq, ptr %freq.addr, align 4, !tbaa !70
  %0 = load i32, ptr %freq.addr, align 4, !tbaa !70
  %cmp = icmp eq i32 %0, 12
  br i1 %cmp, label %if.then, label %if.else

if.then:                                          ; preds = %entry
  call void @llvm.lifetime.start.p0(i64 8, ptr %ref.tmp) #13
  call void @llvm.lifetime.start.p0(i64 8, ptr %ref.tmp1) #13
  %1 = load i32, ptr %month.addr, align 4, !tbaa !66
  %2 = load i32, ptr %year.addr, align 4, !tbaa !68
  call void @_ZN8QuantLib4DateC1EiNS_5MonthEi(ptr noundef nonnull align 8 dereferenceable(8) %ref.tmp1, i32 noundef 1, i32 noundef %1, i32 noundef %2)
  %call = call i64 @_ZN8QuantLib4Date10endOfMonthERKS0_(ptr noundef nonnull align 8 dereferenceable(8) %ref.tmp1)
  %coerce.dive = getelementptr inbounds nuw %"class.QuantLib::Date", ptr %ref.tmp, i32 0, i32 0
  store i64 %call, ptr %coerce.dive, align 8
  %call2 = call i64 @_ZNK8QuantLib4DateplEl(ptr noundef nonnull align 8 dereferenceable(8) %ref.tmp, i64 noundef 1)
  %coerce.dive3 = getelementptr inbounds nuw %"class.QuantLib::Date", ptr %retval, i32 0, i32 0
  store i64 %call2, ptr %coerce.dive3, align 8
  call void @llvm.lifetime.end.p0(i64 8, ptr %ref.tmp1) #13
  call void @llvm.lifetime.end.p0(i64 8, ptr %ref.tmp) #13
  br label %return

if.else:                                          ; preds = %entry
  call void @llvm.lifetime.start.p0(i64 8, ptr %d) #13
  call void @llvm.lifetime.start.p0(i64 8, ptr %ref.tmp4) #13
  %3 = load i32, ptr %month.addr, align 4, !tbaa !66
  %4 = load i32, ptr %year.addr, align 4, !tbaa !68
  %5 = load i32, ptr %freq.addr, align 4, !tbaa !70
  %call5 = call i64 @_ZN8QuantLib12_GLOBAL__N_112getSofrStartENS_5MonthEiNS_9FrequencyE(i32 noundef %3, i32 noundef %4, i32 noundef %5)
  %coerce.dive6 = getelementptr inbounds nuw %"class.QuantLib::Date", ptr %ref.tmp4, i32 0, i32 0
  store i64 %call5, ptr %coerce.dive6, align 8
  call void @llvm.lifetime.start.p0(i64 8, ptr %ref.tmp7) #13
  %6 = load i32, ptr %freq.addr, align 4, !tbaa !70
  call void @_ZN8QuantLib6PeriodC1ENS_9FrequencyE(ptr noundef nonnull align 4 dereferenceable(8) %ref.tmp7, i32 noundef %6)
  %call8 = call i64 @_ZNK8QuantLib4DateplERKNS_6PeriodE(ptr noundef nonnull align 8 dereferenceable(8) %ref.tmp4, ptr noundef nonnull align 4 dereferenceable(8) %ref.tmp7)
  %coerce.dive9 = getelementptr inbounds nuw %"class.QuantLib::Date", ptr %d, i32 0, i32 0
  store i64 %call8, ptr %coerce.dive9, align 8
  call void @llvm.lifetime.end.p0(i64 8, ptr %ref.tmp7) #13
  call void @llvm.lifetime.end.p0(i64 8, ptr %ref.tmp4) #13
  %call10 = call noundef i32 @_ZNK8QuantLib4Date5monthEv(ptr noundef nonnull align 8 dereferenceable(8) %d)
  %call11 = call noundef i32 @_ZNK8QuantLib4Date4yearEv(ptr noundef nonnull align 8 dereferenceable(8) %d)
  %call12 = call i64 @_ZN8QuantLib4Date10nthWeekdayEmNS_7WeekdayENS_5MonthEi(i64 noundef 3, i32 noundef 4, i32 noundef %call10, i32 noundef %call11)
  %coerce.dive13 = getelementptr inbounds nuw %"class.QuantLib::Date", ptr %retval, i32 0, i32 0
  store i64 %call12, ptr %coerce.dive13, align 8
  call void @llvm.lifetime.end.p0(i64 8, ptr %d) #13
  br label %return

return:                                           ; preds = %if.else, %if.then
  %coerce.dive14 = getelementptr inbounds nuw %"class.QuantLib::Date", ptr %retval, i32 0, i32 0
  %7 = load i64, ptr %coerce.dive14, align 8
  ret i64 %7
}