; Function Attrs: mustprogress uwtable
define internal fastcc i64 @_ZN8QuantLib12_GLOBAL__N_110getSofrEndENS_5MonthEiNS_9FrequencyE(i32 noundef %month, i32 noundef %year, i32 noundef %freq) unnamed_addr #6 {
entry:
  %retval.i5 = alloca %"class.QuantLib::Date", align 8
  %retval.i = alloca %"class.QuantLib::Date", align 8
  %ref.tmp1 = alloca %"class.QuantLib::Date", align 8
  %d = alloca %"class.QuantLib::Date", align 8
  %ref.tmp4 = alloca %"class.QuantLib::Date", align 8
  %ref.tmp7 = alloca %"class.QuantLib::Period", align 4
  %cmp = icmp eq i32 %freq, 12
  br i1 %cmp, label %if.then, label %_ZN8QuantLib12_GLOBAL__N_112getSofrStartENS_5MonthEiNS_9FrequencyE.exit

if.then:                                          ; preds = %entry
  call void @llvm.lifetime.start.p0(i64 8, ptr nonnull %ref.tmp1) #25
  call void @_ZN8QuantLib4DateC1EiNS_5MonthEi(ptr noundef nonnull align 8 dereferenceable(8) %ref.tmp1, i32 noundef 1, i32 noundef %month, i32 noundef %year)
  call void @llvm.lifetime.start.p0(i64 8, ptr nonnull %retval.i)
  %call.i = call noundef i32 @_ZNK8QuantLib4Date5monthEv(ptr noundef nonnull align 8 dereferenceable(8) %ref.tmp1)
  %call1.i = call noundef i32 @_ZNK8QuantLib4Date4yearEv(ptr noundef nonnull align 8 dereferenceable(8) %ref.tmp1)
  %call2.i = call noundef zeroext i1 @_ZN8QuantLib4Date6isLeapEi(i32 noundef %call1.i)
  %call3.i = call noundef i32 @_ZN8QuantLib4Date11monthLengthENS_5MonthEb(i32 noundef %call.i, i1 noundef zeroext %call2.i)
  call void @_ZN8QuantLib4DateC1EiNS_5MonthEi(ptr noundef nonnull align 8 dereferenceable(8) %retval.i, i32 noundef %call3.i, i32 noundef %call.i, i32 noundef %call1.i)
  %0 = load i64, ptr %retval.i, align 8
  call void @llvm.lifetime.end.p0(i64 8, ptr nonnull %retval.i)
  call void @llvm.lifetime.start.p0(i64 8, ptr nonnull %retval.i5)
  %add.i = add nsw i64 %0, 1
  call void @_ZN8QuantLib4DateC1El(ptr noundef nonnull align 8 dereferenceable(8) %retval.i5, i64 noundef %add.i)
  %1 = load i64, ptr %retval.i5, align 8
  call void @llvm.lifetime.end.p0(i64 8, ptr nonnull %retval.i5)
  call void @llvm.lifetime.end.p0(i64 8, ptr nonnull %ref.tmp1) #25
  br label %return

_ZN8QuantLib12_GLOBAL__N_112getSofrStartENS_5MonthEiNS_9FrequencyE.exit: ; preds = %entry
  call void @llvm.lifetime.start.p0(i64 8, ptr nonnull %d) #25
  call void @llvm.lifetime.start.p0(i64 8, ptr nonnull %ref.tmp4) #25
  %call.i7 = tail call i64 @_ZN8QuantLib4Date10nthWeekdayEmNS_7WeekdayENS_5MonthEi(i64 noundef 3, i32 noundef 4, i32 noundef %month, i32 noundef %year)
  store i64 %call.i7, ptr %ref.tmp4, align 8
  call void @llvm.lifetime.start.p0(i64 8, ptr nonnull %ref.tmp7) #25
  call void @_ZN8QuantLib6PeriodC1ENS_9FrequencyE(ptr noundef nonnull align 4 dereferenceable(8) %ref.tmp7, i32 noundef %freq)
  %2 = load i32, ptr %ref.tmp7, align 4, !tbaa !104
  %units_.i.i = getelementptr inbounds nuw i8, ptr %ref.tmp7, i64 4
  %3 = load i32, ptr %units_.i.i, align 4, !tbaa !107
  %call3.i8 = call i64 @_ZN8QuantLib4Date7advanceERKS0_iNS_8TimeUnitE(ptr noundef nonnull align 8 dereferenceable(8) %ref.tmp4, i32 noundef %2, i32 noundef %3)
  store i64 %call3.i8, ptr %d, align 8
  call void @llvm.lifetime.end.p0(i64 8, ptr nonnull %ref.tmp7) #25
  call void @llvm.lifetime.end.p0(i64 8, ptr nonnull %ref.tmp4) #25
  %call10 = call noundef i32 @_ZNK8QuantLib4Date5monthEv(ptr noundef nonnull align 8 dereferenceable(8) %d)
  %call11 = call noundef i32 @_ZNK8QuantLib4Date4yearEv(ptr noundef nonnull align 8 dereferenceable(8) %d)
  %call12 = call i64 @_ZN8QuantLib4Date10nthWeekdayEmNS_7WeekdayENS_5MonthEi(i64 noundef 3, i32 noundef 4, i32 noundef %call10, i32 noundef %call11)
  call void @llvm.lifetime.end.p0(i64 8, ptr nonnull %d) #25
  br label %return

return:                                           ; preds = %_ZN8QuantLib12_GLOBAL__N_112getSofrStartENS_5MonthEiNS_9FrequencyE.exit, %if.then
  %retval.sroa.0.0 = phi i64 [ %1, %if.then ], [ %call12, %_ZN8QuantLib12_GLOBAL__N_112getSofrStartENS_5MonthEiNS_9FrequencyE.exit ]
  ret i64 %retval.sroa.0.0
}